target datalayout = "e-m:e-p270:32:32-p271:32:32-p272:64:64-i64:64-i128:128-f80:128-n8:16:32:64-S128"
target triple = "x86_64-pc-linux-gnu"

; Function Attrs: mustprogress uwtable
define dso_local i32 @stbtt_CompareUTF8toUTF16_bigendian(ptr noundef %0, i32 noundef %1, ptr noundef %2, i32 noundef %3) #0 {
  %5 = alloca ptr, align 8
  %6 = alloca i32, align 4
  %7 = alloca ptr, align 8
  %8 = alloca i32, align 4
  store ptr %0, ptr %5, align 8
  store i32 %1, ptr %6, align 4
  store ptr %2, ptr %7, align 8
  store i32 %3, ptr %8, align 4
  %9 = load i32, ptr %6, align 4
  %10 = load ptr, ptr %5, align 8
  %11 = load i32, ptr %6, align 4
  %12 = load ptr, ptr %7, align 8
  %13 = load i32, ptr %8, align 4
  %14 = call noundef i32 @_ZL42stbtt__CompareUTF8toUTF16_bigendian_prefixPKhiS0_i(ptr noundef %10, i32 noundef %11, ptr noundef %12, i32 noundef %13)
  %15 = icmp eq i32 %9, %14
  %16 = zext i1 %15 to i32
  ret i32 %16
}

; Function Attrs: mustprogress nounwind uwtable
define internal noundef zeroext i16 @_ZL8ttUSHORTPKh(ptr noundef %0) #1 {
  %2 = alloca ptr, align 8
  store ptr %0, ptr %2, align 8
  %3 = load ptr, ptr %2, align 8
  %4 = getelementptr inbounds i8, ptr %3, i64 0
  %5 = load i8, ptr %4, align 1
  %6 = zext i8 %5 to i32
  %7 = mul nsw i32 %6, 256
  %8 = load ptr, ptr %2, align 8
  %9 = getelementptr inbounds i8, ptr %8, i64 1
  %10 = load i8, ptr %9, align 1
  %11 = zext i8 %10 to i32
  %12 = add nsw i32 %7, %11
  %13 = trunc i32 %12 to i16
  ret i16 %13
}

; Function Attrs: mustprogress uwtable
define internal noundef i32 @_ZL16stbtt__matchpairPhjS_iii(ptr noundef %0, i32 noundef %1, ptr noundef %2, i32 noundef %3, i32 noundef %4, i32 noundef %5) #0 {
  %7 = alloca i32, align 4
  %8 = alloca ptr, align 8
  %9 = alloca i32, align 4
  %10 = alloca ptr, align 8
  %11 = alloca i32, align 4
  %12 = alloca i32, align 4
  %13 = alloca i32, align 4
  %14 = alloca i32, align 4
  %15 = alloca i32, align 4
  %16 = alloca i32, align 4
  %17 = alloca i32, align 4
  %18 = alloca i32, align 4
  %19 = alloca i32, align 4
  %20 = alloca i32, align 4
  %21 = alloca i32, align 4
  %22 = alloca i32, align 4
  %23 = alloca i32, align 4
  %24 = alloca i32, align 4
  store ptr %0, ptr %8, align 8
  store i32 %1, ptr %9, align 4
  store ptr %2, ptr %10, align 8
  store i32 %3, ptr %11, align 4
  store i32 %4, ptr %12, align 4
  store i32 %5, ptr %13, align 4
  %25 = load ptr, ptr %8, align 8
  %26 = load i32, ptr %9, align 4
  %27 = zext i32 %26 to i64
  %28 = getelementptr inbounds i8, ptr %25, i64 %27
  %29 = getelementptr inbounds i8, ptr %28, i64 2
  %30 = call noundef zeroext i16 @_ZL8ttUSHORTPKh(ptr noundef %29)
  %31 = zext i16 %30 to i32
  store i32 %31, ptr %15, align 4
  %32 = load i32, ptr %9, align 4
  %33 = load ptr, ptr %8, align 8
  %34 = load i32, ptr %9, align 4
  %35 = zext i32 %34 to i64
  %36 = getelementptr inbounds i8, ptr %33, i64 %35
  %37 = getelementptr inbounds i8, ptr %36, i64 4
  %38 = call noundef zeroext i16 @_ZL8ttUSHORTPKh(ptr noundef %37)
  %39 = zext i16 %38 to i32
  %40 = add i32 %32, %39
  store i32 %40, ptr %16, align 4
  store i32 0, ptr %14, align 4
  br label %41

41:                                               ; preds = %244, %6
  %42 = load i32, ptr %14, align 4
  %43 = load i32, ptr %15, align 4
  %44 = icmp slt i32 %42, %43
  br i1 %44, label %45, label %247

45:                                               ; preds = %41
  %46 = load i32, ptr %9, align 4
  %47 = add i32 %46, 6
  %48 = load i32, ptr %14, align 4
  %49 = mul nsw i32 12, %48
  %50 = add i32 %47, %49
  store i32 %50, ptr %17, align 4
  %51 = load ptr, ptr %8, align 8
  %52 = load i32, ptr %17, align 4
  %53 = zext i32 %52 to i64
  %54 = getelementptr inbounds i8, ptr %51, i64 %53
  %55 = getelementptr inbounds i8, ptr %54, i64 6
  %56 = call noundef zeroext i16 @_ZL8ttUSHORTPKh(ptr noundef %55)
  %57 = zext i16 %56 to i32
  store i32 %57, ptr %18, align 4
  %58 = load i32, ptr %18, align 4
  %59 = load i32, ptr %12, align 4
  %60 = icmp eq i32 %58, %59
  br i1 %60, label %61, label %243

61:                                               ; preds = %45
  %62 = load ptr, ptr %8, align 8
  %63 = load i32, ptr %17, align 4
  %64 = zext i32 %63 to i64
  %65 = getelementptr inbounds i8, ptr %62, i64 %64
  %66 = getelementptr inbounds i8, ptr %65, i64 0
  %67 = call noundef zeroext i16 @_ZL8ttUSHORTPKh(ptr noundef %66)
  %68 = zext i16 %67 to i32
  store i32 %68, ptr %19, align 4
  %69 = load ptr, ptr %8, align 8
  %70 = load i32, ptr %17, align 4
  %71 = zext i32 %70 to i64
  %72 = getelementptr inbounds i8, ptr %69, i64 %71
  %73 = getelementptr inbounds i8, ptr %72, i64 2
  %74 = call noundef zeroext i16 @_ZL8ttUSHORTPKh(ptr noundef %73)
  %75 = zext i16 %74 to i32
  store i32 %75, ptr %20, align 4
  %76 = load ptr, ptr %8, align 8
  %77 = load i32, ptr %17, align 4
  %78 = zext i32 %77 to i64
  %79 = getelementptr inbounds i8, ptr %76, i64 %78
  %80 = getelementptr inbounds i8, ptr %79, i64 4
  %81 = call noundef zeroext i16 @_ZL8ttUSHORTPKh(ptr noundef %80)
  %82 = zext i16 %81 to i32
  store i32 %82, ptr %21, align 4
  %83 = load i32, ptr %19, align 4
  %84 = icmp eq i32 %83, 0
  br i1 %84, label %97, label %85

85:                                               ; preds = %61
  %86 = load i32, ptr %19, align 4
  %87 = icmp eq i32 %86, 3
  br i1 %87, label %88, label %91

88:                                               ; preds = %85
  %89 = load i32, ptr %20, align 4
  %90 = icmp eq i32 %89, 1
  br i1 %90, label %97, label %91

91:                                               ; preds = %88, %85
  %92 = load i32, ptr %19, align 4
  %93 = icmp eq i32 %92, 3
  br i1 %93, label %94, label %242

94:                                               ; preds = %91
  %95 = load i32, ptr %20, align 4
  %96 = icmp eq i32 %95, 10
  br i1 %96, label %97, label %242

97:                                               ; preds = %94, %88, %61
  %98 = load ptr, ptr %8, align 8
  %99 = load i32, ptr %17, align 4
  %100 = zext i32 %99 to i64
  %101 = getelementptr inbounds i8, ptr %98, i64 %100
  %102 = getelementptr inbounds i8, ptr %101, i64 8
  %103 = call noundef zeroext i16 @_ZL8ttUSHORTPKh(ptr noundef %102)
  %104 = zext i16 %103 to i32
  store i32 %104, ptr %22, align 4
  %105 = load ptr, ptr %8, align 8
  %106 = load i32, ptr %17, align 4
  %107 = zext i32 %106 to i64
  %108 = getelementptr inbounds i8, ptr %105, i64 %107
  %109 = getelementptr inbounds i8, ptr %108, i64 10
  %110 = call noundef zeroext i16 @_ZL8ttUSHORTPKh(ptr noundef %109)
  %111 = zext i16 %110 to i32
  store i32 %111, ptr %23, align 4
  %112 = load ptr, ptr %10, align 8
  %113 = load i32, ptr %11, align 4
  %114 = load ptr, ptr %8, align 8
  %115 = load i32, ptr %16, align 4
  %116 = sext i32 %115 to i64
  %117 = getelementptr inbounds i8, ptr %114, i64 %116
  %118 = load i32, ptr %23, align 4
  %119 = sext i32 %118 to i64
  %120 = getelementptr inbounds i8, ptr %117, i64 %119
  %121 = load i32, ptr %22, align 4
  %122 = call noundef i32 @_ZL42stbtt__CompareUTF8toUTF16_bigendian_prefixPKhiS0_i(ptr noundef %112, i32 noundef %113, ptr noundef %120, i32 noundef %121)
  store i32 %122, ptr %24, align 4
  %123 = load i32, ptr %24, align 4
  %124 = icmp sge i32 %123, 0
  br i1 %124, label %125, label %241

125:                                              ; preds = %97
  %126 = load i32, ptr %14, align 4
  %127 = add nsw i32 %126, 1
  %128 = load i32, ptr %15, align 4
  %129 = icmp slt i32 %127, %128
  br i1 %129, label %130, label %234

130:                                              ; preds = %125
  %131 = load ptr, ptr %8, align 8
  %132 = load i32, ptr %17, align 4
  %133 = zext i32 %132 to i64
  %134 = getelementptr inbounds i8, ptr %131, i64 %133
  %135 = getelementptr inbounds i8, ptr %134, i64 12
  %136 = getelementptr inbounds i8, ptr %135, i64 6
  %137 = call noundef zeroext i16 @_ZL8ttUSHORTPKh(ptr noundef %136)
  %138 = zext i16 %137 to i32
  %139 = load i32, ptr %13, align 4
  %140 = icmp eq i32 %138, %139
  br i1 %140, label %141, label %234

141:                                              ; preds = %130
  %142 = load ptr, ptr %8, align 8
  %143 = load i32, ptr %17, align 4
  %144 = zext i32 %143 to i64
  %145 = getelementptr inbounds i8, ptr %142, i64 %144
  %146 = getelementptr inbounds i8, ptr %145, i64 12
  %147 = call noundef zeroext i16 @_ZL8ttUSHORTPKh(ptr noundef %146)
  %148 = zext i16 %147 to i32
  %149 = load i32, ptr %19, align 4
  %150 = icmp eq i32 %148, %149
  br i1 %150, label %151, label %234

151:                                              ; preds = %141
  %152 = load ptr, ptr %8, align 8
  %153 = load i32, ptr %17, align 4
  %154 = zext i32 %153 to i64
  %155 = getelementptr inbounds i8, ptr %152, i64 %154
  %156 = getelementptr inbounds i8, ptr %155, i64 12
  %157 = getelementptr inbounds i8, ptr %156, i64 2
  %158 = call noundef zeroext i16 @_ZL8ttUSHORTPKh(ptr noundef %157)
  %159 = zext i16 %158 to i32
  %160 = load i32, ptr %20, align 4
  %161 = icmp eq i32 %159, %160
  br i1 %161, label %162, label %234

162:                                              ; preds = %151
  %163 = load ptr, ptr %8, align 8
  %164 = load i32, ptr %17, align 4
  %165 = zext i32 %164 to i64
  %166 = getelementptr inbounds i8, ptr %163, i64 %165
  %167 = getelementptr inbounds i8, ptr %166, i64 12
  %168 = getelementptr inbounds i8, ptr %167, i64 4
  %169 = call noundef zeroext i16 @_ZL8ttUSHORTPKh(ptr noundef %168)
  %170 = zext i16 %169 to i32
  %171 = load i32, ptr %21, align 4
  %172 = icmp eq i32 %170, %171
  br i1 %172, label %173, label %234

173:                                              ; preds = %162
  %174 = load ptr, ptr %8, align 8
  %175 = load i32, ptr %17, align 4
  %176 = zext i32 %175 to i64
  %177 = getelementptr inbounds i8, ptr %174, i64 %176
  %178 = getelementptr inbounds i8, ptr %177, i64 12
  %179 = getelementptr inbounds i8, ptr %178, i64 8
  %180 = call noundef zeroext i16 @_ZL8ttUSHORTPKh(ptr noundef %179)
  %181 = zext i16 %180 to i32
  store i32 %181, ptr %22, align 4
  %182 = load ptr, ptr %8, align 8
  %183 = load i32, ptr %17, align 4
  %184 = zext i32 %183 to i64
  %185 = getelementptr inbounds i8, ptr %182, i64 %184
  %186 = getelementptr inbounds i8, ptr %185, i64 12
  %187 = getelementptr inbounds i8, ptr %186, i64 10
  %188 = call noundef zeroext i16 @_ZL8ttUSHORTPKh(ptr noundef %187)
  %189 = zext i16 %188 to i32
  store i32 %189, ptr %23, align 4
  %190 = load i32, ptr %22, align 4
  %191 = icmp eq i32 %190, 0
  br i1 %191, label %192, label %198

192:                                              ; preds = %173
  %193 = load i32, ptr %24, align 4
  %194 = load i32, ptr %11, align 4
  %195 = icmp eq i32 %193, %194
  br i1 %195, label %196, label %197

196:                                              ; preds = %192
  store i32 1, ptr %7, align 4
  br label %248

197:                                              ; preds = %192
  br label %233

198:                                              ; preds = %173
  %199 = load i32, ptr %24, align 4
  %200 = load i32, ptr %11, align 4
  %201 = icmp slt i32 %199, %200
  br i1 %201, label %202, label %232

202:                                              ; preds = %198
  %203 = load ptr, ptr %10, align 8
  %204 = load i32, ptr %24, align 4
  %205 = sext i32 %204 to i64
  %206 = getelementptr inbounds i8, ptr %203, i64 %205
  %207 = load i8, ptr %206, align 1
  %208 = zext i8 %207 to i32
  %209 = icmp eq i32 %208, 32
  br i1 %209, label %210, label %232

210:                                              ; preds = %202
  %211 = load i32, ptr %24, align 4
  %212 = add nsw i32 %211, 1
  store i32 %212, ptr %24, align 4
  %213 = load ptr, ptr %10, align 8
  %214 = load i32, ptr %24, align 4
  %215 = sext i32 %214 to i64
  %216 = getelementptr inbounds i8, ptr %213, i64 %215
  %217 = load i32, ptr %11, align 4
  %218 = load i32, ptr %24, align 4
  %219 = sub nsw i32 %217, %218
  %220 = load ptr, ptr %8, align 8
  %221 = load i32, ptr %16, align 4
  %222 = sext i32 %221 to i64
  %223 = getelementptr inbounds i8, ptr %220, i64 %222
  %224 = load i32, ptr %23, align 4
  %225 = sext i32 %224 to i64
  %226 = getelementptr inbounds i8, ptr %223, i64 %225
  %227 = load i32, ptr %22, align 4
  %228 = call i32 @stbtt_CompareUTF8toUTF16_bigendian(ptr noundef %216, i32 noundef %219, ptr noundef %226, i32 noundef %227)
  %229 = icmp ne i32 %228, 0
  br i1 %229, label %230, label %231

230:                                              ; preds = %210
  store i32 1, ptr %7, align 4
  br label %248

231:                                              ; preds = %210
  br label %232

232:                                              ; preds = %231, %202, %198
  br label %233

233:                                              ; preds = %232, %197
  br label %240

234:                                              ; preds = %162, %151, %141, %130, %125
  %235 = load i32, ptr %24, align 4
  %236 = load i32, ptr %11, align 4
  %237 = icmp eq i32 %235, %236
  br i1 %237, label %238, label %239

238:                                              ; preds = %234
  store i32 1, ptr %7, align 4
  br label %248

239:                                              ; preds = %234
  br label %240

240:                                              ; preds = %239, %233
  br label %241

241:                                              ; preds = %240, %97
  br label %242

242:                                              ; preds = %241, %94, %91
  br label %243

243:                                              ; preds = %242, %45
  br label %244

244:                                              ; preds = %243
  %245 = load i32, ptr %14, align 4
  %246 = add nsw i32 %245, 1
  store i32 %246, ptr %14, align 4
  br label %41, !llvm.loop !77

247:                                              ; preds = %41
  store i32 0, ptr %7, align 4
  br label %248

248:                                              ; preds = %247, %238, %230, %196
  %249 = load i32, ptr %7, align 4
  ret i32 %249
}