; Function Attrs: mustprogress nofree norecurse nosync nounwind willreturn memory(argmem: read) uwtable
define internal fastcc noundef range(i32 0, 2) i32 @_ZL16stbtt__matchpairPhjS_iii(ptr noundef readonly captures(none) %0, i32 noundef range(i32 1, 0) %1, ptr noundef readonly captures(none) %2, i32 noundef %3, i32 noundef range(i32 1, 17) %4, i32 noundef range(i32 -1, 18) %5) unnamed_addr #0 {
  %7 = zext i32 %1 to i64
  %8 = getelementptr inbounds nuw i8, ptr %0, i64 %7
  %9 = getelementptr inbounds nuw i8, ptr %8, i64 2
  %.val107 = load i8, ptr %9, align 1
  %10 = getelementptr i8, ptr %8, i64 3
  %.val108 = load i8, ptr %10, align 1
  %11 = zext i8 %.val107 to i32
  %12 = shl nuw nsw i32 %11, 8
  %13 = zext i8 %.val108 to i32
  %14 = or disjoint i32 %12, %13
  %.not117 = icmp eq i32 %14, 0
  br i1 %.not117, label %._crit_edge, label %.lr.ph

.lr.ph:                                           ; preds = %6
  %15 = getelementptr inbounds nuw i8, ptr %8, i64 4
  %.val105 = load i8, ptr %15, align 1
  %16 = zext i8 %.val105 to i32
  %17 = shl nuw nsw i32 %16, 8
  %18 = getelementptr i8, ptr %8, i64 5
  %.val106 = load i8, ptr %18, align 1
  %19 = zext i8 %.val106 to i32
  %20 = or disjoint i32 %17, %19
  %21 = add i32 %20, %1
  %22 = add i32 %1, 6
  %23 = sext i32 %21 to i64
  %24 = getelementptr inbounds i8, ptr %0, i64 %23
  %25 = zext nneg i32 %14 to i64
  br label %26

26:                                               ; preds = %.lr.ph, %146
  %indvars.iv = phi i64 [ 0, %.lr.ph ], [ %indvars.iv.next, %146 ]
  %27 = trunc i64 %indvars.iv to i32
  %28 = mul i32 %27, 12
  %29 = add i32 %22, %28
  %30 = zext i32 %29 to i64
  %31 = getelementptr inbounds nuw i8, ptr %0, i64 %30
  %32 = getelementptr inbounds nuw i8, ptr %31, i64 6
  %.val103 = load i8, ptr %32, align 1
  %33 = getelementptr i8, ptr %31, i64 7
  %.val104 = load i8, ptr %33, align 1
  %34 = zext i8 %.val103 to i32
  %35 = shl nuw nsw i32 %34, 8
  %36 = zext i8 %.val104 to i32
  %37 = or disjoint i32 %35, %36
  %38 = icmp eq i32 %4, %37
  br i1 %38, label %39, label %146

39:                                               ; preds = %26
  %.val101 = load i8, ptr %31, align 1
  %40 = getelementptr i8, ptr %31, i64 1
  %.val102 = load i8, ptr %40, align 1
  %41 = zext i8 %.val101 to i16
  %42 = shl nuw i16 %41, 8
  %43 = zext i8 %.val102 to i16
  %44 = or disjoint i16 %42, %43
  %45 = getelementptr inbounds nuw i8, ptr %31, i64 2
  %.val99 = load i8, ptr %45, align 1
  %46 = getelementptr i8, ptr %31, i64 3
  %.val100 = load i8, ptr %46, align 1
  %47 = zext i8 %.val99 to i16
  %48 = shl nuw i16 %47, 8
  %49 = zext i8 %.val100 to i16
  %50 = or disjoint i16 %48, %49
  %51 = getelementptr inbounds nuw i8, ptr %31, i64 4
  %.val97 = load i8, ptr %51, align 1
  %52 = getelementptr i8, ptr %31, i64 5
  %.val98 = load i8, ptr %52, align 1
  %53 = zext i8 %.val97 to i16
  %54 = shl nuw i16 %53, 8
  %55 = zext i8 %.val98 to i16
  %56 = or disjoint i16 %54, %55
  %57 = icmp eq i16 %44, 0
  br i1 %57, label %62, label %58

58:                                               ; preds = %39
  %59 = icmp eq i16 %44, 3
  %60 = icmp eq i16 %50, 1
  %61 = icmp eq i16 %50, 10
  %or.cond3109 = or i1 %60, %61
  %or.cond81 = and i1 %59, %or.cond3109
  br i1 %or.cond81, label %62, label %146

62:                                               ; preds = %58, %39
  %63 = getelementptr inbounds nuw i8, ptr %31, i64 8
  %.val95 = load i8, ptr %63, align 1
  %64 = getelementptr i8, ptr %31, i64 9
  %.val96 = load i8, ptr %64, align 1
  %65 = zext i8 %.val95 to i32
  %66 = shl nuw nsw i32 %65, 8
  %67 = zext i8 %.val96 to i32
  %68 = or disjoint i32 %66, %67
  %69 = getelementptr inbounds nuw i8, ptr %31, i64 10
  %.val93 = load i8, ptr %69, align 1
  %70 = getelementptr i8, ptr %31, i64 11
  %.val94 = load i8, ptr %70, align 1
  %71 = zext i8 %.val93 to i64
  %72 = shl nuw nsw i64 %71, 8
  %73 = zext i8 %.val94 to i64
  %74 = or disjoint i64 %72, %73
  %75 = getelementptr inbounds nuw i8, ptr %24, i64 %74
  %76 = tail call fastcc noundef i32 @_ZL42stbtt__CompareUTF8toUTF16_bigendian_prefixPKhiS0_i(ptr noundef %2, i32 noundef %3, ptr noundef %75, i32 noundef %68)
  %77 = icmp sgt i32 %76, -1
  br i1 %77, label %78, label %146

78:                                               ; preds = %62
  %79 = add nuw nsw i64 %indvars.iv, 1
  %80 = icmp samesign ult i64 %79, %25
  br i1 %80, label %81, label %144

81:                                               ; preds = %78
  %82 = getelementptr inbounds nuw i8, ptr %31, i64 18
  %.val91 = load i8, ptr %82, align 1
  %83 = getelementptr i8, ptr %31, i64 19
  %.val92 = load i8, ptr %83, align 1
  %84 = zext i8 %.val91 to i32
  %85 = shl nuw nsw i32 %84, 8
  %86 = zext i8 %.val92 to i32
  %87 = or disjoint i32 %85, %86
  %88 = icmp eq i32 %5, %87
  br i1 %88, label %89, label %144

89:                                               ; preds = %81
  %90 = getelementptr inbounds nuw i8, ptr %31, i64 12
  %.val89 = load i8, ptr %90, align 1
  %91 = getelementptr i8, ptr %31, i64 13
  %.val90 = load i8, ptr %91, align 1
  %92 = zext i8 %.val89 to i16
  %93 = shl nuw i16 %92, 8
  %94 = zext i8 %.val90 to i16
  %95 = or disjoint i16 %93, %94
  %96 = icmp eq i16 %95, %44
  br i1 %96, label %97, label %144

97:                                               ; preds = %89
  %98 = getelementptr inbounds nuw i8, ptr %31, i64 14
  %.val87 = load i8, ptr %98, align 1
  %99 = getelementptr i8, ptr %31, i64 15
  %.val88 = load i8, ptr %99, align 1
  %100 = zext i8 %.val87 to i16
  %101 = shl nuw i16 %100, 8
  %102 = zext i8 %.val88 to i16
  %103 = or disjoint i16 %101, %102
  %104 = icmp eq i16 %103, %50
  br i1 %104, label %105, label %144

105:                                              ; preds = %97
  %106 = getelementptr inbounds nuw i8, ptr %31, i64 16
  %.val85 = load i8, ptr %106, align 1
  %107 = getelementptr i8, ptr %31, i64 17
  %.val86 = load i8, ptr %107, align 1
  %108 = zext i8 %.val85 to i16
  %109 = shl nuw i16 %108, 8
  %110 = zext i8 %.val86 to i16
  %111 = or disjoint i16 %109, %110
  %112 = icmp eq i16 %111, %56
  br i1 %112, label %113, label %144

113:                                              ; preds = %105
  %114 = getelementptr inbounds nuw i8, ptr %31, i64 20
  %.val83 = load i8, ptr %114, align 1
  %115 = getelementptr i8, ptr %31, i64 21
  %.val84 = load i8, ptr %115, align 1
  %116 = zext i8 %.val83 to i16
  %117 = shl nuw i16 %116, 8
  %118 = zext i8 %.val84 to i16
  %119 = or disjoint i16 %117, %118
  %120 = zext i16 %119 to i32
  %121 = getelementptr inbounds nuw i8, ptr %31, i64 22
  %.val = load i8, ptr %121, align 1
  %122 = getelementptr i8, ptr %31, i64 23
  %.val82 = load i8, ptr %122, align 1
  %123 = zext i8 %.val to i64
  %124 = shl nuw nsw i64 %123, 8
  %125 = zext i8 %.val82 to i64
  %126 = or disjoint i64 %124, %125
  %127 = icmp eq i16 %119, 0
  br i1 %127, label %128, label %130

128:                                              ; preds = %113
  %129 = icmp eq i32 %76, %3
  br i1 %129, label %._crit_edge, label %146

130:                                              ; preds = %113
  %131 = icmp slt i32 %76, %3
  br i1 %131, label %132, label %146

132:                                              ; preds = %130
  %133 = zext nneg i32 %76 to i64
  %134 = getelementptr inbounds nuw i8, ptr %2, i64 %133
  %135 = load i8, ptr %134, align 1
  %136 = icmp eq i8 %135, 32
  br i1 %136, label %137, label %146

137:                                              ; preds = %132
  %138 = add nuw nsw i32 %76, 1
  %139 = zext nneg i32 %138 to i64
  %140 = getelementptr inbounds nuw i8, ptr %2, i64 %139
  %141 = sub nsw i32 %3, %138
  %142 = getelementptr inbounds nuw i8, ptr %24, i64 %126
  %143 = tail call fastcc noundef i32 @_ZL42stbtt__CompareUTF8toUTF16_bigendian_prefixPKhiS0_i(ptr noundef nonnull readonly %140, i32 noundef %141, ptr noundef readonly %142, i32 noundef %120)
  %.not = icmp eq i32 %141, %143
  br i1 %.not, label %._crit_edge, label %146

144:                                              ; preds = %105, %97, %89, %81, %78
  %145 = icmp eq i32 %76, %3
  br i1 %145, label %._crit_edge, label %146

146:                                              ; preds = %58, %26, %62, %144, %128, %137, %132, %130
  %indvars.iv.next = add nuw nsw i64 %indvars.iv, 1
  %exitcond.not = icmp eq i64 %indvars.iv.next, %25
  br i1 %exitcond.not, label %._crit_edge, label %26, !llvm.loop !79

._crit_edge:                                      ; preds = %128, %137, %144, %146, %6
  %.0 = phi i32 [ 0, %6 ], [ 0, %146 ], [ 1, %144 ], [ 1, %137 ], [ 1, %128 ]
  ret i32 %.0
}